target datalayout = "e-m:e-p270:32:32-p271:32:32-p272:64:64-i64:64-i128:128-f80:128-n8:16:32:64-S128"
target triple = "x86_64-unknown-linux-gnu"

%class.btAlignedObjectArray.4 = type <{ %class.btAlignedAllocator.5, [3 x i8], i32, i32, [4 x i8], ptr, i8, [7 x i8] }>
%class.btAlignedAllocator.5 = type { i8 }
%class.btSoftBodySolver.base = type <{ ptr, i32, i32, float }>
%class.btAlignedObjectArray.8 = type <{ %class.btAlignedAllocator.9, [3 x i8], i32, i32, [4 x i8], ptr, i8, [7 x i8] }>
%class.btAlignedAllocator.9 = type { i8 }
%class.btConjugateGradient = type { %class.btKrylovSolver, %class.btAlignedObjectArray.4, %class.btAlignedObjectArray.4, %class.btAlignedObjectArray.4, %class.btAlignedObjectArray.4 }
%class.btKrylovSolver = type { ptr, i32, float }
%class.btConjugateResidual = type <{ %class.btKrylovSolver, %class.btAlignedObjectArray.4, %class.btAlignedObjectArray.4, %class.btAlignedObjectArray.4, %class.btAlignedObjectArray.4, %class.btAlignedObjectArray.4, %class.btAlignedObjectArray.4, float, [4 x i8] }>
%class.btDeformableBodySolver = type <{ %class.btSoftBodySolver.base, i32, %class.btAlignedObjectArray.4, %class.btAlignedObjectArray.4, %class.btAlignedObjectArray.4, %class.btAlignedObjectArray.4, %class.btAlignedObjectArray.8, %class.btAlignedObjectArray.4, float, [4 x i8], %class.btConjugateGradient, %class.btConjugateResidual, i8, [3 x i8], i32, float, i8, i8, [2 x i8], ptr, i8, [7 x i8] }>

; Function Attrs: mustprogress nounwind uwtable
define linkonce_odr dso_local noundef nonnull align 8 dereferenceable(8) ptr @_ZN20btAlignedObjectArrayIP10btSoftBodyEixEi(ptr noundef nonnull align 8 dereferenceable(25) %this, i32 noundef %n) #1 comdat align 2 {
entry:
  %this.addr = alloca ptr, align 8
  %n.addr = alloca i32, align 4
  store ptr %this, ptr %this.addr, align 8
  store i32 %n, ptr %n.addr, align 4
  %this1 = load ptr, ptr %this.addr, align 8
  %m_data = getelementptr inbounds %class.btAlignedObjectArray.8, ptr %this1, i32 0, i32 5
  %0 = load ptr, ptr %m_data, align 8
  %1 = load i32, ptr %n.addr, align 4
  %idxprom = sext i32 %1 to i64
  %arrayidx = getelementptr inbounds ptr, ptr %0, i64 %idxprom
  ret ptr %arrayidx
}

; Function Attrs: mustprogress nounwind uwtable
define linkonce_odr dso_local noundef i32 @_ZNK20btAlignedObjectArrayIP10btSoftBodyE4sizeEv(ptr noundef nonnull align 8 dereferenceable(25) %this) #1 comdat align 2 {
entry:
  %this.addr = alloca ptr, align 8
  store ptr %this, ptr %this.addr, align 8
  %this1 = load ptr, ptr %this.addr, align 8
  %m_size = getelementptr inbounds %class.btAlignedObjectArray.8, ptr %this1, i32 0, i32 2
  %0 = load i32, ptr %m_size, align 4
  ret i32 %0
}

; Function Attrs: mustprogress uwtable
define dso_local void @_ZN29btReducedDeformableBodySolver15applyTransformsEf(ptr noundef nonnull align 8 dereferenceable(736) %this, float noundef %timeStep) unnamed_addr #5 align 2 {
entry:
  %this.addr = alloca ptr, align 8
  %timeStep.addr = alloca float, align 4
  %i = alloca i32, align 4
  %rsb = alloca ptr, align 8
  store ptr %this, ptr %this.addr, align 8
  store float %timeStep, ptr %timeStep.addr, align 4
  %this1 = load ptr, ptr %this.addr, align 8
  store i32 0, ptr %i, align 4
  br label %for.cond

for.cond:                                         ; preds = %for.inc, %entry
  %0 = load i32, ptr %i, align 4
  %m_softBodies = getelementptr inbounds %class.btDeformableBodySolver, ptr %this1, i32 0, i32 6
  %call = call noundef i32 @_ZNK20btAlignedObjectArrayIP10btSoftBodyE4sizeEv(ptr noundef nonnull align 8 dereferenceable(25) %m_softBodies)
  %cmp = icmp slt i32 %0, %call
  br i1 %cmp, label %for.body, label %for.end

for.body:                                         ; preds = %for.cond
  %m_softBodies2 = getelementptr inbounds %class.btDeformableBodySolver, ptr %this1, i32 0, i32 6
  %1 = load i32, ptr %i, align 4
  %call3 = call noundef nonnull align 8 dereferenceable(8) ptr @_ZN20btAlignedObjectArrayIP10btSoftBodyEixEi(ptr noundef nonnull align 8 dereferenceable(25) %m_softBodies2, i32 noundef %1)
  %2 = load ptr, ptr %call3, align 8
  store ptr %2, ptr %rsb, align 8
  %3 = load ptr, ptr %rsb, align 8
  %4 = load float, ptr %timeStep.addr, align 4
  call void @_ZN23btReducedDeformableBody18proceedToTransformEfb(ptr noundef nonnull align 8 dereferenceable(3176) %3, float noundef %4, i1 noundef zeroext true)
  %5 = load ptr, ptr %rsb, align 8
  %call4 = call noundef zeroext i1 @_ZNK23btReducedDeformableBody17isReducedModesOFFEv(ptr noundef nonnull align 8 dereferenceable(3176) %5)
  br i1 %call4, label %if.end, label %if.then

if.then:                                          ; preds = %for.body
  %6 = load ptr, ptr %rsb, align 8
  %7 = load float, ptr %timeStep.addr, align 4
  call void @_ZN23btReducedDeformableBody17updateReducedDofsEf(ptr noundef nonnull align 8 dereferenceable(3176) %6, float noundef %7)
  %8 = load ptr, ptr %rsb, align 8
  call void @_ZN23btReducedDeformableBody20updateLocalMomentArmEv(ptr noundef nonnull align 8 dereferenceable(3176) %8)
  %9 = load ptr, ptr %rsb, align 8
  call void @_ZN23btReducedDeformableBody32updateExternalForceProjectMatrixEb(ptr noundef nonnull align 8 dereferenceable(3176) %9, i1 noundef zeroext true)
  br label %if.end

if.end:                                           ; preds = %if.then, %for.body
  %10 = load ptr, ptr %rsb, align 8
  %11 = load ptr, ptr %rsb, align 8
  %call5 = call noundef nonnull align 4 dereferenceable(64) ptr @_ZN23btReducedDeformableBody17getRigidTransformEv(ptr noundef nonnull align 8 dereferenceable(3176) %11)
  call void @_ZN23btReducedDeformableBody17mapToFullPositionERK11btTransform(ptr noundef nonnull align 8 dereferenceable(3176) %10, ptr noundef nonnull align 4 dereferenceable(64) %call5)
  %12 = load ptr, ptr %rsb, align 8
  %13 = load ptr, ptr %rsb, align 8
  %call6 = call noundef nonnull align 4 dereferenceable(64) ptr @_ZN23btReducedDeformableBody17getRigidTransformEv(ptr noundef nonnull align 8 dereferenceable(3176) %13)
  call void @_ZN23btReducedDeformableBody17mapToFullVelocityERK11btTransform(ptr noundef nonnull align 8 dereferenceable(3176) %12, ptr noundef nonnull align 4 dereferenceable(64) %call6)
  %14 = load ptr, ptr %rsb, align 8
  call void @_ZN23btReducedDeformableBody20endOfTimeStepZeroingEv(ptr noundef nonnull align 8 dereferenceable(3176) %14)
  %15 = load ptr, ptr %rsb, align 8
  call void @_ZN10btSoftBody21interpolateRenderMeshEv(ptr noundef nonnull align 8 dereferenceable(2064) %15)
  br label %for.inc

for.inc:                                          ; preds = %if.end
  %16 = load i32, ptr %i, align 4
  %inc = add nsw i32 %16, 1
  store i32 %inc, ptr %i, align 4
  br label %for.cond, !llvm.loop !39

for.end:                                          ; preds = %for.cond
  ret void
}