; Function Attrs: mustprogress uwtable
define dso_local void @_ZN29btReducedDeformableBodySolver15applyTransformsEf(ptr nocapture noundef nonnull readonly align 8 dereferenceable(736) %this, float noundef %timeStep) unnamed_addr #3 align 2 {
entry:
  %m_size.i = getelementptr inbounds i8, ptr %this, i64 156
  %0 = load i32, ptr %m_size.i, align 4
  %cmp14 = icmp sgt i32 %0, 0
  br i1 %cmp14, label %for.body.lr.ph, label %for.end

for.body.lr.ph:                                   ; preds = %entry
  %m_data.i = getelementptr inbounds i8, ptr %this, i64 168
  br label %for.body

for.body:                                         ; preds = %for.body.lr.ph, %if.end
  %indvars.iv = phi i64 [ 0, %for.body.lr.ph ], [ %indvars.iv.next, %if.end ]
  %1 = load ptr, ptr %m_data.i, align 8
  %arrayidx.i = getelementptr inbounds ptr, ptr %1, i64 %indvars.iv
  %2 = load ptr, ptr %arrayidx.i, align 8
  tail call void @_ZN23btReducedDeformableBody18proceedToTransformEfb(ptr noundef nonnull align 8 dereferenceable(3176) %2, float noundef %timeStep, i1 noundef zeroext true)
  %call4 = tail call noundef zeroext i1 @_ZNK23btReducedDeformableBody17isReducedModesOFFEv(ptr noundef nonnull align 8 dereferenceable(3176) %2)
  br i1 %call4, label %if.end, label %if.then

if.then:                                          ; preds = %for.body
  tail call void @_ZN23btReducedDeformableBody17updateReducedDofsEf(ptr noundef nonnull align 8 dereferenceable(3176) %2, float noundef %timeStep)
  tail call void @_ZN23btReducedDeformableBody20updateLocalMomentArmEv(ptr noundef nonnull align 8 dereferenceable(3176) %2)
  tail call void @_ZN23btReducedDeformableBody32updateExternalForceProjectMatrixEb(ptr noundef nonnull align 8 dereferenceable(3176) %2, i1 noundef zeroext true)
  br label %if.end

if.end:                                           ; preds = %if.then, %for.body
  %call5 = tail call noundef nonnull align 4 dereferenceable(64) ptr @_ZN23btReducedDeformableBody17getRigidTransformEv(ptr noundef nonnull align 8 dereferenceable(3176) %2)
  tail call void @_ZN23btReducedDeformableBody17mapToFullPositionERK11btTransform(ptr noundef nonnull align 8 dereferenceable(3176) %2, ptr noundef nonnull align 4 dereferenceable(64) %call5)
  %call6 = tail call noundef nonnull align 4 dereferenceable(64) ptr @_ZN23btReducedDeformableBody17getRigidTransformEv(ptr noundef nonnull align 8 dereferenceable(3176) %2)
  tail call void @_ZN23btReducedDeformableBody17mapToFullVelocityERK11btTransform(ptr noundef nonnull align 8 dereferenceable(3176) %2, ptr noundef nonnull align 4 dereferenceable(64) %call6)
  tail call void @_ZN23btReducedDeformableBody20endOfTimeStepZeroingEv(ptr noundef nonnull align 8 dereferenceable(3176) %2)
  tail call void @_ZN10btSoftBody21interpolateRenderMeshEv(ptr noundef nonnull align 8 dereferenceable(2064) %2)
  %indvars.iv.next = add nuw nsw i64 %indvars.iv, 1
  %3 = load i32, ptr %m_size.i, align 4
  %4 = sext i32 %3 to i64
  %cmp = icmp slt i64 %indvars.iv.next, %4
  br i1 %cmp, label %for.body, label %for.end, !llvm.loop !49

for.end:                                          ; preds = %if.end, %entry
  ret void
}